target datalayout = "e-m:e-p270:32:32-p271:32:32-p272:64:64-i64:64-i128:128-f80:128-n8:16:32:64-S128"
target triple = "x86_64-pc-linux-gnu"

%struct.ident_t = type { i32, i32, i32, i32, ptr }
%"class.ncnn::Mat" = type { ptr, ptr, i64, i32, ptr, i32, i32, i32, i32, i32, i64 }

@1 = private unnamed_addr constant %struct.ident_t { i32 0, i32 514, i32 0, i32 22, ptr @0 }, align 8

; Function Attrs: noinline noreturn nounwind uwtable
define linkonce_odr hidden void @__clang_call_terminate(ptr noundef %0) #6 comdat {
  %2 = call ptr @__cxa_begin_catch(ptr %0) #11
  call void @_ZSt9terminatev() #14
  unreachable
}

; Function Attrs: alwaysinline mustprogress nounwind uwtable
define linkonce_odr hidden noundef ptr @_ZNK4ncnn3Mat3rowIKhEEPKT_i(ptr noundef nonnull align 8 dereferenceable(72) %0, i32 noundef %1) #3 comdat align 2 {
  %3 = alloca ptr, align 8
  %4 = alloca i32, align 4
  store ptr %0, ptr %3, align 8, !tbaa !38
  store i32 %1, ptr %4, align 4, !tbaa !40
  %5 = load ptr, ptr %3, align 8
  %6 = getelementptr inbounds nuw %"class.ncnn::Mat", ptr %5, i32 0, i32 0
  %7 = load ptr, ptr %6, align 8, !tbaa !61
  %8 = getelementptr inbounds nuw %"class.ncnn::Mat", ptr %5, i32 0, i32 6
  %9 = load i32, ptr %8, align 4, !tbaa !44
  %10 = sext i32 %9 to i64
  %11 = load i32, ptr %4, align 4, !tbaa !40
  %12 = sext i32 %11 to i64
  %13 = mul i64 %10, %12
  %14 = getelementptr inbounds nuw %"class.ncnn::Mat", ptr %5, i32 0, i32 2
  %15 = load i64, ptr %14, align 8, !tbaa !41
  %16 = mul i64 %13, %15
  %17 = getelementptr inbounds nuw i8, ptr %7, i64 %16
  ret ptr %17
}

; Function Attrs: alwaysinline mustprogress nounwind uwtable
define linkonce_odr hidden noundef ptr @_ZN4ncnn3Mat3rowIhEEPT_i(ptr noundef nonnull align 8 dereferenceable(72) %0, i32 noundef %1) #3 comdat align 2 {
  %3 = alloca ptr, align 8
  %4 = alloca i32, align 4
  store ptr %0, ptr %3, align 8, !tbaa !38
  store i32 %1, ptr %4, align 4, !tbaa !40
  %5 = load ptr, ptr %3, align 8
  %6 = getelementptr inbounds nuw %"class.ncnn::Mat", ptr %5, i32 0, i32 0
  %7 = load ptr, ptr %6, align 8, !tbaa !61
  %8 = getelementptr inbounds nuw %"class.ncnn::Mat", ptr %5, i32 0, i32 6
  %9 = load i32, ptr %8, align 4, !tbaa !44
  %10 = sext i32 %9 to i64
  %11 = load i32, ptr %4, align 4, !tbaa !40
  %12 = sext i32 %11 to i64
  %13 = mul i64 %10, %12
  %14 = getelementptr inbounds nuw %"class.ncnn::Mat", ptr %5, i32 0, i32 2
  %15 = load i64, ptr %14, align 8, !tbaa !41
  %16 = mul i64 %13, %15
  %17 = getelementptr inbounds nuw i8, ptr %7, i64 %16
  ret ptr %17
}

; Function Attrs: alwaysinline norecurse nounwind uwtable
define internal void @_ZNK4ncnn5Slice7forwardERKSt6vectorINS_3MatESaIS2_EERS4_RKNS_6OptionE.omp_outlined(ptr noalias noundef %0, ptr noalias noundef %1, ptr noundef nonnull align 4 dereferenceable(4) %2, ptr noundef nonnull align 8 dereferenceable(72) %3, ptr noundef nonnull align 8 dereferenceable(72) %4, ptr noundef nonnull align 4 dereferenceable(4) %5, ptr noundef nonnull align 8 dereferenceable(8) %6, ptr noundef nonnull align 4 dereferenceable(4) %7) #10 personality ptr @__gxx_personality_v0 {
  %9 = alloca ptr, align 8
  %10 = alloca ptr, align 8
  %11 = alloca ptr, align 8
  %12 = alloca ptr, align 8
  %13 = alloca ptr, align 8
  %14 = alloca ptr, align 8
  %15 = alloca ptr, align 8
  %16 = alloca ptr, align 8
  %17 = alloca ptr, align 8
  %18 = alloca ptr, align 8
  %19 = alloca i32, align 4
  %20 = alloca i32, align 4
  %21 = alloca i32, align 4
  %22 = alloca i32, align 4
  %23 = alloca i32, align 4
  %24 = alloca i32, align 4
  %25 = alloca i32, align 4
  %26 = alloca i32, align 4
  %27 = alloca i32, align 4
  %28 = alloca ptr, align 8
  %29 = alloca ptr, align 8
  store ptr %0, ptr %9, align 8, !tbaa !43
  store ptr %1, ptr %10, align 8, !tbaa !43
  store ptr %2, ptr %11, align 8, !tbaa !43
  store ptr %3, ptr %12, align 8, !tbaa !38
  store ptr %4, ptr %13, align 8, !tbaa !38
  store ptr %5, ptr %14, align 8, !tbaa !43
  store ptr %6, ptr %15, align 8, !tbaa !68
  store ptr %7, ptr %16, align 8, !tbaa !43
  %30 = load ptr, ptr %11, align 8, !tbaa !43
  %31 = load ptr, ptr %12, align 8, !tbaa !38
  %32 = load ptr, ptr %13, align 8, !tbaa !38
  %33 = load ptr, ptr %14, align 8, !tbaa !43
  %34 = load ptr, ptr %15, align 8, !tbaa !68
  %35 = load ptr, ptr %16, align 8, !tbaa !43
  store ptr %31, ptr %17, align 8
  store ptr %32, ptr %18, align 8
  call void @llvm.lifetime.start.p0(i64 4, ptr %19) #11
  call void @llvm.lifetime.start.p0(i64 4, ptr %20) #11
  %36 = load i32, ptr %30, align 4, !tbaa !40
  store i32 %36, ptr %20, align 4, !tbaa !40
  call void @llvm.lifetime.start.p0(i64 4, ptr %21) #11
  %37 = load i32, ptr %20, align 4, !tbaa !40
  %38 = sub nsw i32 %37, 0
  %39 = sdiv i32 %38, 1
  %40 = sub nsw i32 %39, 1
  store i32 %40, ptr %21, align 4, !tbaa !40
  call void @llvm.lifetime.start.p0(i64 4, ptr %22) #11
  store i32 0, ptr %22, align 4, !tbaa !40
  call void @llvm.lifetime.end.p0(i64 4, ptr %22) #11
  %41 = load i32, ptr %20, align 4, !tbaa !40
  %42 = icmp slt i32 0, %41
  br i1 %42, label %43, label %93

43:                                               ; preds = %8
  call void @llvm.lifetime.start.p0(i64 4, ptr %23) #11
  store i32 0, ptr %23, align 4, !tbaa !40
  call void @llvm.lifetime.start.p0(i64 4, ptr %24) #11
  %44 = load i32, ptr %21, align 4, !tbaa !40
  store i32 %44, ptr %24, align 4, !tbaa !40
  call void @llvm.lifetime.start.p0(i64 4, ptr %25) #11
  store i32 1, ptr %25, align 4, !tbaa !40
  call void @llvm.lifetime.start.p0(i64 4, ptr %26) #11
  store i32 0, ptr %26, align 4, !tbaa !40
  call void @llvm.lifetime.start.p0(i64 4, ptr %27) #11
  %45 = load ptr, ptr %9, align 8
  %46 = load i32, ptr %45, align 4, !tbaa !40
  call void @__kmpc_for_static_init_4(ptr @1, i32 %46, i32 34, ptr %26, ptr %23, ptr %24, ptr %25, i32 1, i32 1)
  %47 = load i32, ptr %24, align 4, !tbaa !40
  %48 = load i32, ptr %21, align 4, !tbaa !40
  %49 = icmp sgt i32 %47, %48
  br i1 %49, label %50, label %52

50:                                               ; preds = %43
  %51 = load i32, ptr %21, align 4, !tbaa !40
  br label %54

52:                                               ; preds = %43
  %53 = load i32, ptr %24, align 4, !tbaa !40
  br label %54

54:                                               ; preds = %52, %50
  %55 = phi i32 [ %51, %50 ], [ %53, %52 ]
  store i32 %55, ptr %24, align 4, !tbaa !40
  %56 = load i32, ptr %23, align 4, !tbaa !40
  store i32 %56, ptr %19, align 4, !tbaa !40
  br label %57

57:                                               ; preds = %86, %54
  %58 = load i32, ptr %19, align 4, !tbaa !40
  %59 = load i32, ptr %24, align 4, !tbaa !40
  %60 = icmp sle i32 %58, %59
  br i1 %60, label %62, label %61

61:                                               ; preds = %57
  br label %89

62:                                               ; preds = %57
  %63 = load i32, ptr %19, align 4, !tbaa !40
  %64 = mul nsw i32 %63, 1
  %65 = add nsw i32 0, %64
  store i32 %65, ptr %27, align 4, !tbaa !40
  call void @llvm.lifetime.start.p0(i64 8, ptr %28) #11
  %66 = load ptr, ptr %17, align 8, !tbaa !38
  %67 = load i32, ptr %27, align 4, !tbaa !40
  %68 = invoke noundef ptr @_ZN4ncnn3Mat3rowIhEEPT_i(ptr noundef nonnull align 8 dereferenceable(72) %66, i32 noundef %67)
          to label %69 unwind label %94

69:                                               ; preds = %62
  store ptr %68, ptr %28, align 8, !tbaa !47
  call void @llvm.lifetime.start.p0(i64 8, ptr %29) #11
  %70 = load ptr, ptr %18, align 8, !tbaa !38
  %71 = load i32, ptr %27, align 4, !tbaa !40
  %72 = invoke noundef ptr @_ZNK4ncnn3Mat3rowIKhEEPKT_i(ptr noundef nonnull align 8 dereferenceable(72) %70, i32 noundef %71)
          to label %73 unwind label %94

73:                                               ; preds = %69
  %74 = load i32, ptr %33, align 4, !tbaa !40
  %75 = sext i32 %74 to i64
  %76 = load i64, ptr %34, align 8, !tbaa !42
  %77 = mul i64 %75, %76
  %78 = getelementptr inbounds nuw i8, ptr %72, i64 %77
  store ptr %78, ptr %29, align 8, !tbaa !47
  %79 = load ptr, ptr %28, align 8, !tbaa !47
  %80 = load ptr, ptr %29, align 8, !tbaa !47
  %81 = load i32, ptr %35, align 4, !tbaa !40
  %82 = sext i32 %81 to i64
  %83 = load i64, ptr %34, align 8, !tbaa !42
  %84 = mul i64 %82, %83
  call void @llvm.memcpy.p0.p0.i64(ptr align 1 %79, ptr align 1 %80, i64 %84, i1 false)
  call void @llvm.lifetime.end.p0(i64 8, ptr %29) #11
  call void @llvm.lifetime.end.p0(i64 8, ptr %28) #11
  br label %85

85:                                               ; preds = %73
  br label %86

86:                                               ; preds = %85
  %87 = load i32, ptr %19, align 4, !tbaa !40
  %88 = add nsw i32 %87, 1
  store i32 %88, ptr %19, align 4, !tbaa !40
  br label %57

89:                                               ; preds = %61
  br label %90

90:                                               ; preds = %89
  %91 = load ptr, ptr %9, align 8
  %92 = load i32, ptr %91, align 4, !tbaa !40
  call void @__kmpc_for_static_fini(ptr @1, i32 %92)
  call void @llvm.lifetime.end.p0(i64 4, ptr %27) #11
  call void @llvm.lifetime.end.p0(i64 4, ptr %26) #11
  call void @llvm.lifetime.end.p0(i64 4, ptr %25) #11
  call void @llvm.lifetime.end.p0(i64 4, ptr %24) #11
  call void @llvm.lifetime.end.p0(i64 4, ptr %23) #11
  br label %93

93:                                               ; preds = %90, %8
  call void @llvm.lifetime.end.p0(i64 4, ptr %21) #11
  call void @llvm.lifetime.end.p0(i64 4, ptr %20) #11
  call void @llvm.lifetime.end.p0(i64 4, ptr %19) #11
  ret void

94:                                               ; preds = %69, %62
  %95 = landingpad { ptr, i32 }
          catch ptr null
  %96 = extractvalue { ptr, i32 } %95, 0
  call void @__clang_call_terminate(ptr %96) #14
  unreachable
}