; Function Attrs: alwaysinline norecurse nounwind uwtable
define internal void @_ZNK4ncnn5Slice7forwardERKSt6vectorINS_3MatESaIS2_EERS4_RKNS_6OptionE.omp_outlined(ptr noalias noundef readonly captures(none) %0, ptr noalias readnone captures(none) %1, ptr noundef nonnull readonly align 4 captures(none) dereferenceable(4) %2, ptr noundef nonnull readonly align 8 captures(none) dereferenceable(72) %3, ptr noundef nonnull readonly align 8 captures(none) dereferenceable(72) %4, ptr noundef nonnull readonly align 4 captures(none) dereferenceable(4) %5, ptr noundef nonnull readonly align 8 captures(none) dereferenceable(8) %6, ptr noundef nonnull readonly align 4 captures(none) dereferenceable(4) %7) #9 personality ptr @__gxx_personality_v0 {
  %9 = alloca i32, align 4
  %10 = alloca i32, align 4
  %11 = alloca i32, align 4
  %12 = alloca i32, align 4
  %13 = load i32, ptr %2, align 4, !tbaa !44
  %14 = icmp sgt i32 %13, 0
  br i1 %14, label %15, label %51

15:                                               ; preds = %8
  %16 = add nsw i32 %13, -1
  call void @llvm.lifetime.start.p0(i64 4, ptr nonnull %9) #10
  store i32 0, ptr %9, align 4, !tbaa !44
  call void @llvm.lifetime.start.p0(i64 4, ptr nonnull %10) #10
  store i32 %16, ptr %10, align 4, !tbaa !44
  call void @llvm.lifetime.start.p0(i64 4, ptr nonnull %11) #10
  store i32 1, ptr %11, align 4, !tbaa !44
  call void @llvm.lifetime.start.p0(i64 4, ptr nonnull %12) #10
  store i32 0, ptr %12, align 4, !tbaa !44
  %17 = load i32, ptr %0, align 4, !tbaa !44
  call void @__kmpc_for_static_init_4(ptr nonnull @1, i32 %17, i32 34, ptr nonnull %12, ptr nonnull %9, ptr nonnull %10, ptr nonnull %11, i32 1, i32 1)
  %18 = load i32, ptr %10, align 4, !tbaa !44
  %19 = call i32 @llvm.smin.i32(i32 %18, i32 %16)
  store i32 %19, ptr %10, align 4, !tbaa !44
  %20 = load i32, ptr %9, align 4, !tbaa !44
  %.not21 = icmp sgt i32 %20, %19
  br i1 %.not21, label %._crit_edge, label %.lr.ph

.lr.ph:                                           ; preds = %15
  %21 = getelementptr inbounds nuw i8, ptr %3, i64 44
  %22 = getelementptr inbounds nuw i8, ptr %3, i64 16
  %23 = getelementptr inbounds nuw i8, ptr %4, i64 44
  %24 = getelementptr inbounds nuw i8, ptr %4, i64 16
  %25 = sext i32 %20 to i64
  br label %26

26:                                               ; preds = %.lr.ph, %26
  %indvars.iv = phi i64 [ %25, %.lr.ph ], [ %indvars.iv.next, %26 ]
  %27 = load ptr, ptr %3, align 8, !tbaa !16
  %28 = load i32, ptr %21, align 4, !tbaa !21
  %29 = sext i32 %28 to i64
  %30 = mul nsw i64 %indvars.iv, %29
  %31 = load i64, ptr %22, align 8, !tbaa !18
  %32 = mul i64 %30, %31
  %33 = getelementptr inbounds nuw i8, ptr %27, i64 %32
  %34 = load ptr, ptr %4, align 8, !tbaa !16
  %35 = load i32, ptr %23, align 4, !tbaa !21
  %36 = sext i32 %35 to i64
  %37 = mul nsw i64 %indvars.iv, %36
  %38 = load i64, ptr %24, align 8, !tbaa !18
  %39 = mul i64 %37, %38
  %40 = getelementptr inbounds nuw i8, ptr %34, i64 %39
  %41 = load i32, ptr %5, align 4, !tbaa !44
  %42 = sext i32 %41 to i64
  %43 = load i64, ptr %6, align 8, !tbaa !42
  %44 = mul i64 %43, %42
  %45 = getelementptr inbounds nuw i8, ptr %40, i64 %44
  %46 = load i32, ptr %7, align 4, !tbaa !44
  %47 = sext i32 %46 to i64
  %48 = mul i64 %43, %47
  call void @llvm.memcpy.p0.p0.i64(ptr align 1 %33, ptr align 1 %45, i64 %48, i1 false)
  %indvars.iv.next = add nsw i64 %indvars.iv, 1
  %49 = load i32, ptr %10, align 4, !tbaa !44
  %50 = sext i32 %49 to i64
  %.not.not = icmp slt i64 %indvars.iv, %50
  br i1 %.not.not, label %26, label %._crit_edge

._crit_edge:                                      ; preds = %26, %15
  call void @__kmpc_for_static_fini(ptr nonnull @1, i32 %17)
  call void @llvm.lifetime.end.p0(i64 4, ptr nonnull %12) #10
  call void @llvm.lifetime.end.p0(i64 4, ptr nonnull %11) #10
  call void @llvm.lifetime.end.p0(i64 4, ptr nonnull %10) #10
  call void @llvm.lifetime.end.p0(i64 4, ptr nonnull %9) #10
  br label %51

51:                                               ; preds = %._crit_edge, %8
  ret void
}